; Function Attrs: nounwind uwtable
define internal fastcc ptr @agxbuse(ptr noundef %0) unnamed_addr #0 {
  %2 = getelementptr i8, ptr %0, i64 31
  %.val.i.i = load i8, ptr %2, align 1
  %.not.i.i = icmp eq i8 %.val.i.i, -1
  br i1 %.not.i.i, label %4, label %agxblen.exit.i

agxblen.exit.i:                                   ; preds = %1
  %3 = zext i8 %.val.i.i to i64
  br label %agxbsizeof.exit.i

4:                                                ; preds = %1
  %5 = getelementptr inbounds nuw i8, ptr %0, i64 8
  %6 = load i64, ptr %5, align 8
  %7 = getelementptr inbounds nuw i8, ptr %0, i64 16
  %8 = load i64, ptr %7, align 8
  br label %agxbsizeof.exit.i

agxbsizeof.exit.i:                                ; preds = %4, %agxblen.exit.i
  %.0.i20.i = phi i64 [ %6, %4 ], [ %3, %agxblen.exit.i ]
  %.0.i14.i = phi i64 [ %8, %4 ], [ 31, %agxblen.exit.i ]
  %.not.i = icmp ult i64 %.0.i20.i, %.0.i14.i
  br i1 %.not.i, label %10, label %9

9:                                                ; preds = %agxbsizeof.exit.i
  tail call fastcc void @agxbmore(ptr noundef nonnull %0, i64 noundef 1)
  %.val.i15.pre.i = load i8, ptr %2, align 1
  br label %10

10:                                               ; preds = %9, %agxbsizeof.exit.i
  %.val.i15.i = phi i8 [ %.val.i15.pre.i, %9 ], [ %.val.i.i, %agxbsizeof.exit.i ]
  %.not.i16.i = icmp eq i8 %.val.i15.i, -1
  br i1 %.not.i16.i, label %16, label %11

11:                                               ; preds = %10
  %12 = zext i8 %.val.i15.i to i64
  %13 = getelementptr inbounds nuw [31 x i8], ptr %0, i64 0, i64 %12
  store i8 0, ptr %13, align 1
  %14 = load i8, ptr %2, align 1
  %15 = add i8 %14, 1
  store i8 %15, ptr %2, align 1
  br label %agxbputc.exit

16:                                               ; preds = %10
  %17 = getelementptr inbounds nuw i8, ptr %0, i64 8
  %18 = load i64, ptr %17, align 8
  %19 = load ptr, ptr %0, align 8
  %20 = getelementptr inbounds i8, ptr %19, i64 %18
  store i8 0, ptr %20, align 1
  %21 = load i64, ptr %17, align 8
  %22 = add i64 %21, 1
  store i64 %22, ptr %17, align 8
  %.val.i.pr = load i8, ptr %2, align 1
  br label %agxbputc.exit

agxbputc.exit:                                    ; preds = %11, %16
  %.val.i4.pr = phi i8 [ %15, %11 ], [ %.val.i.pr, %16 ]
  %.not.i3 = icmp eq i8 %.val.i4.pr, -1
  br i1 %.not.i3, label %23, label %agxbclear.exit.thread

agxbclear.exit.thread:                            ; preds = %agxbputc.exit
  store i8 0, ptr %2, align 1
  br label %agxbstart.exit

23:                                               ; preds = %agxbputc.exit
  %24 = getelementptr inbounds nuw i8, ptr %0, i64 8
  store i64 0, ptr %24, align 8
  %25 = load ptr, ptr %0, align 8
  br label %agxbstart.exit

agxbstart.exit:                                   ; preds = %agxbclear.exit.thread, %23
  %26 = phi ptr [ %25, %23 ], [ %0, %agxbclear.exit.thread ]
  ret ptr %26
}